#include <math.h>
#include <stdio.h>
#include <stdlib.h>
#include <string.h>

int main(){
int sz[300];
int n,i,k,a,b,m=1;
scanf("%d",&n);
scanf("%d",&(sz[0]));
for(i=1;i<n;i++){
	b=0;
	scanf("%d",&a);
	for(k=0;k<m;k++){
		if(sz[k]==a){
			b++;
		}
	}
	if(b==0){
		sz[m]=a;
		m++;
	}
}
printf("%d",sz[0]);
for(i=1;i<m;i++){
printf(",%d",sz[i]);
}
return 0;
}
